; ModuleID = '19/115.c'
source_filename = "19/115.c"
target datalayout = "e-m:e-p270:32:32-p271:32:32-p272:64:64-i64:64-f80:128-n8:16:32:64-S128"
target triple = "x86_64-pc-linux-gnu"

@.str = private unnamed_addr constant [4 x i8] c"%s \00", align 1
@.str.1 = private unnamed_addr constant [3 x i8] c"%s\00", align 1

; Function Attrs: noinline nounwind uwtable
define dso_local void @main() #0 {
  %1 = alloca [80 x i8], align 16
  %2 = alloca [30 x [20 x i8]], align 16
  %3 = alloca [20 x i8], align 16
  %4 = alloca [20 x i8], align 16
  %5 = alloca i8*, align 8
  %6 = alloca i32, align 4
  %7 = alloca i32, align 4
  %8 = alloca i32, align 4
  %9 = alloca i32, align 4
  %10 = alloca i32, align 4
  store i32 0, i32* %10, align 4
  %11 = getelementptr inbounds [80 x i8], [80 x i8]* %1, i64 0, i64 0
  %12 = call i32 (i8*, ...) bitcast (i32 (...)* @gets to i32 (i8*, ...)*)(i8* %11)
  %13 = getelementptr inbounds [20 x i8], [20 x i8]* %3, i64 0, i64 0
  %14 = call i32 (i8*, ...) bitcast (i32 (...)* @gets to i32 (i8*, ...)*)(i8* %13)
  %15 = getelementptr inbounds [20 x i8], [20 x i8]* %4, i64 0, i64 0
  %16 = call i32 (i8*, ...) bitcast (i32 (...)* @gets to i32 (i8*, ...)*)(i8* %15)
  %17 = getelementptr inbounds [80 x i8], [80 x i8]* %1, i64 0, i64 0
  store i8* %17, i8** %5, align 8
  store i32 0, i32* %6, align 4
  store i32 0, i32* %9, align 4
  br label %18

18:                                               ; preds = %36, %0
  %19 = load i8*, i8** %5, align 8
  %20 = load i32, i32* %6, align 4
  %21 = sext i32 %20 to i64
  %22 = getelementptr inbounds i8, i8* %19, i64 %21
  %23 = load i8, i8* %22, align 1
  %24 = sext i8 %23 to i32
  %25 = icmp ne i32 %24, 32
  br i1 %25, label %26, label %41

26:                                               ; preds = %18
  %27 = load i8*, i8** %5, align 8
  %28 = load i32, i32* %6, align 4
  %29 = sext i32 %28 to i64
  %30 = getelementptr inbounds i8, i8* %27, i64 %29
  %31 = load i8, i8* %30, align 1
  %32 = getelementptr inbounds [30 x [20 x i8]], [30 x [20 x i8]]* %2, i64 0, i64 0
  %33 = load i32, i32* %9, align 4
  %34 = sext i32 %33 to i64
  %35 = getelementptr inbounds [20 x i8], [20 x i8]* %32, i64 0, i64 %34
  store i8 %31, i8* %35, align 1
  br label %36

36:                                               ; preds = %26
  %37 = load i32, i32* %6, align 4
  %38 = add nsw i32 %37, 1
  store i32 %38, i32* %6, align 4
  %39 = load i32, i32* %9, align 4
  %40 = add nsw i32 %39, 1
  store i32 %40, i32* %9, align 4
  br label %18

41:                                               ; preds = %18
  %42 = getelementptr inbounds [30 x [20 x i8]], [30 x [20 x i8]]* %2, i64 0, i64 0
  %43 = load i32, i32* %9, align 4
  %44 = sext i32 %43 to i64
  %45 = getelementptr inbounds [20 x i8], [20 x i8]* %42, i64 0, i64 %44
  store i8 0, i8* %45, align 1
  %46 = getelementptr inbounds [80 x i8], [80 x i8]* %1, i64 0, i64 0
  %47 = call i64 @strlen(i8* %46) #4
  %48 = trunc i64 %47 to i32
  store i32 %48, i32* %8, align 4
  store i32 1, i32* %10, align 4
  store i32 0, i32* %6, align 4
  br label %49

49:                                               ; preds = %105, %41
  %50 = load i32, i32* %6, align 4
  %51 = load i32, i32* %8, align 4
  %52 = icmp slt i32 %50, %51
  br i1 %52, label %53, label %108

53:                                               ; preds = %49
  %54 = load i8*, i8** %5, align 8
  %55 = load i32, i32* %6, align 4
  %56 = sext i32 %55 to i64
  %57 = getelementptr inbounds i8, i8* %54, i64 %56
  %58 = getelementptr inbounds i8, i8* %57, i64 -1
  %59 = load i8, i8* %58, align 1
  %60 = sext i8 %59 to i32
  %61 = icmp eq i32 %60, 32
  br i1 %61, label %62, label %104

62:                                               ; preds = %53
  %63 = load i8*, i8** %5, align 8
  %64 = load i32, i32* %6, align 4
  %65 = sext i32 %64 to i64
  %66 = getelementptr inbounds i8, i8* %63, i64 %65
  %67 = load i8, i8* %66, align 1
  %68 = sext i8 %67 to i32
  %69 = icmp ne i32 %68, 32
  br i1 %69, label %70, label %104

70:                                               ; preds = %62
  %71 = load i32, i32* %6, align 4
  store i32 %71, i32* %7, align 4
  store i32 0, i32* %9, align 4
  br label %72

72:                                               ; preds = %90, %70
  %73 = load i32, i32* %7, align 4
  %74 = sext i32 %73 to i64
  %75 = getelementptr inbounds [80 x i8], [80 x i8]* %1, i64 0, i64 %74
  %76 = load i8, i8* %75, align 1
  %77 = sext i8 %76 to i32
  %78 = icmp ne i32 %77, 32
  br i1 %78, label %79, label %95

79:                                               ; preds = %72
  %80 = load i32, i32* %7, align 4
  %81 = sext i32 %80 to i64
  %82 = getelementptr inbounds [80 x i8], [80 x i8]* %1, i64 0, i64 %81
  %83 = load i8, i8* %82, align 1
  %84 = load i32, i32* %10, align 4
  %85 = sext i32 %84 to i64
  %86 = getelementptr inbounds [30 x [20 x i8]], [30 x [20 x i8]]* %2, i64 0, i64 %85
  %87 = load i32, i32* %9, align 4
  %88 = sext i32 %87 to i64
  %89 = getelementptr inbounds [20 x i8], [20 x i8]* %86, i64 0, i64 %88
  store i8 %83, i8* %89, align 1
  br label %90

90:                                               ; preds = %79
  %91 = load i32, i32* %7, align 4
  %92 = add nsw i32 %91, 1
  store i32 %92, i32* %7, align 4
  %93 = load i32, i32* %9, align 4
  %94 = add nsw i32 %93, 1
  store i32 %94, i32* %9, align 4
  br label %72

95:                                               ; preds = %72
  %96 = load i32, i32* %10, align 4
  %97 = sext i32 %96 to i64
  %98 = getelementptr inbounds [30 x [20 x i8]], [30 x [20 x i8]]* %2, i64 0, i64 %97
  %99 = load i32, i32* %9, align 4
  %100 = sext i32 %99 to i64
  %101 = getelementptr inbounds [20 x i8], [20 x i8]* %98, i64 0, i64 %100
  store i8 0, i8* %101, align 1
  %102 = load i32, i32* %10, align 4
  %103 = add nsw i32 %102, 1
  store i32 %103, i32* %10, align 4
  br label %104

104:                                              ; preds = %95, %62, %53
  br label %105

105:                                              ; preds = %104
  %106 = load i32, i32* %6, align 4
  %107 = add nsw i32 %106, 1
  store i32 %107, i32* %6, align 4
  br label %49

108:                                              ; preds = %49
  store i32 0, i32* %6, align 4
  br label %109

109:                                              ; preds = %129, %108
  %110 = load i32, i32* %6, align 4
  %111 = load i32, i32* %10, align 4
  %112 = icmp slt i32 %110, %111
  br i1 %112, label %113, label %132

113:                                              ; preds = %109
  %114 = getelementptr inbounds [20 x i8], [20 x i8]* %3, i64 0, i64 0
  %115 = load i32, i32* %6, align 4
  %116 = sext i32 %115 to i64
  %117 = getelementptr inbounds [30 x [20 x i8]], [30 x [20 x i8]]* %2, i64 0, i64 %116
  %118 = getelementptr inbounds [20 x i8], [20 x i8]* %117, i64 0, i64 0
  %119 = call i32 @strcmp(i8* %114, i8* %118) #4
  %120 = icmp eq i32 %119, 0
  br i1 %120, label %121, label %128

121:                                              ; preds = %113
  %122 = load i32, i32* %6, align 4
  %123 = sext i32 %122 to i64
  %124 = getelementptr inbounds [30 x [20 x i8]], [30 x [20 x i8]]* %2, i64 0, i64 %123
  %125 = getelementptr inbounds [20 x i8], [20 x i8]* %124, i64 0, i64 0
  %126 = getelementptr inbounds [20 x i8], [20 x i8]* %4, i64 0, i64 0
  %127 = call i8* @strcpy(i8* %125, i8* %126) #5
  br label %128

128:                                              ; preds = %121, %113
  br label %129

129:                                              ; preds = %128
  %130 = load i32, i32* %6, align 4
  %131 = add nsw i32 %130, 1
  store i32 %131, i32* %6, align 4
  br label %109

132:                                              ; preds = %109
  store i32 0, i32* %6, align 4
  br label %133

133:                                              ; preds = %144, %132
  %134 = load i32, i32* %6, align 4
  %135 = load i32, i32* %10, align 4
  %136 = sub nsw i32 %135, 1
  %137 = icmp slt i32 %134, %136
  br i1 %137, label %138, label %147

138:                                              ; preds = %133
  %139 = load i32, i32* %6, align 4
  %140 = sext i32 %139 to i64
  %141 = getelementptr inbounds [30 x [20 x i8]], [30 x [20 x i8]]* %2, i64 0, i64 %140
  %142 = getelementptr inbounds [20 x i8], [20 x i8]* %141, i64 0, i64 0
  %143 = call i32 (i8*, ...) @printf(i8* getelementptr inbounds ([4 x i8], [4 x i8]* @.str, i64 0, i64 0), i8* %142)
  br label %144

144:                                              ; preds = %138
  %145 = load i32, i32* %6, align 4
  %146 = add nsw i32 %145, 1
  store i32 %146, i32* %6, align 4
  br label %133

147:                                              ; preds = %133
  %148 = load i32, i32* %10, align 4
  %149 = sub nsw i32 %148, 1
  %150 = sext i32 %149 to i64
  %151 = getelementptr inbounds [30 x [20 x i8]], [30 x [20 x i8]]* %2, i64 0, i64 %150
  %152 = getelementptr inbounds [20 x i8], [20 x i8]* %151, i64 0, i64 0
  %153 = call i32 (i8*, ...) @printf(i8* getelementptr inbounds ([3 x i8], [3 x i8]* @.str.1, i64 0, i64 0), i8* %152)
  ret void
}

declare dso_local i32 @gets(...) #1

; Function Attrs: nounwind readonly
declare dso_local i64 @strlen(i8*) #2

; Function Attrs: nounwind readonly
declare dso_local i32 @strcmp(i8*, i8*) #2

; Function Attrs: nounwind
declare dso_local i8* @strcpy(i8*, i8*) #3

declare dso_local i32 @printf(i8*, ...) #1


!llvm.module.flags = !{!0}
!llvm.ident = !{!1}

!0 = !{i32 1, !"wchar_size", i32 4}
!1 = !{!"clang version 10.0.0-4ubuntu1 "}
